target datalayout = "e-m:e-p270:32:32-p271:32:32-p272:64:64-i64:64-i128:128-f80:128-n8:16:32:64-S128"
target triple = "x86_64-pc-linux-gnu"

%"class.icu_77::internal::LocalOpenPointer" = type { %"class.icu_77::LocalPointerBase" }
%"class.icu_77::LocalPointerBase" = type { ptr }

@.str.12 = private unnamed_addr constant [21 x i8] c"currencyNumericCodes\00", align 1
@.str.13 = private unnamed_addr constant [8 x i8] c"codeMap\00", align 1

; Function Attrs: mustprogress nounwind uwtable
define linkonce_odr void @_ZN6icu_7716LocalPointerBaseI15UResourceBundleEC2EPS1_(ptr noundef nonnull align 8 dereferenceable(8) %0, ptr noundef %1) unnamed_addr #0 comdat align 2 {
  %3 = alloca ptr, align 8
  %4 = alloca ptr, align 8
  store ptr %0, ptr %3, align 8, !tbaa !70
  store ptr %1, ptr %4, align 8, !tbaa !53
  %5 = load ptr, ptr %3, align 8
  %6 = getelementptr inbounds nuw %"class.icu_77::LocalPointerBase", ptr %5, i32 0, i32 0
  %7 = load ptr, ptr %4, align 8, !tbaa !53
  store ptr %7, ptr %6, align 8, !tbaa !72
  ret void
}

; Function Attrs: mustprogress nounwind uwtable
define linkonce_odr noundef ptr @_ZNK6icu_7716LocalPointerBaseI15UResourceBundleE8getAliasEv(ptr noundef nonnull align 8 dereferenceable(8) %0) #0 comdat align 2 {
  %2 = alloca ptr, align 8
  store ptr %0, ptr %2, align 8, !tbaa !70
  %3 = load ptr, ptr %2, align 8
  %4 = getelementptr inbounds nuw %"class.icu_77::LocalPointerBase", ptr %3, i32 0, i32 0
  %5 = load ptr, ptr %4, align 8, !tbaa !72
  ret ptr %5
}

; Function Attrs: inlinehint mustprogress uwtable
define internal noundef ptr @_ZL15myUCharsToCharsPcPKDs(ptr noundef %0, ptr noundef %1) #3 {
  %3 = alloca ptr, align 8
  %4 = alloca ptr, align 8
  store ptr %0, ptr %3, align 8, !tbaa !17
  store ptr %1, ptr %4, align 8, !tbaa !39
  %5 = load ptr, ptr %4, align 8, !tbaa !39
  %6 = load ptr, ptr %3, align 8, !tbaa !17
  call void @u_UCharsToChars_77(ptr noundef %5, ptr noundef %6, i32 noundef 3)
  %7 = load ptr, ptr %3, align 8, !tbaa !17
  %8 = getelementptr inbounds i8, ptr %7, i64 3
  store i8 0, ptr %8, align 1, !tbaa !47
  %9 = load ptr, ptr %3, align 8, !tbaa !17
  ret ptr %9
}

; Function Attrs: inlinehint mustprogress nounwind uwtable
define internal noundef signext i8 @_ZL9U_SUCCESS10UErrorCode(i32 noundef %0) #2 {
  %2 = alloca i32, align 4
  store i32 %0, ptr %2, align 4, !tbaa !15
  %3 = load i32, ptr %2, align 4, !tbaa !15
  %4 = icmp sle i32 %3, 0
  %5 = zext i1 %4 to i8
  ret i8 %5
}

; Function Attrs: mustprogress uwtable
define linkonce_odr void @_ZN6icu_778internal16LocalOpenPointerI15UResourceBundleXadL_Z13ures_close_77EEEC2EPS2_(ptr noundef nonnull align 8 dereferenceable(8) %0, ptr noundef %1) unnamed_addr #1 comdat align 2 {
  %3 = alloca ptr, align 8
  %4 = alloca ptr, align 8
  store ptr %0, ptr %3, align 8, !tbaa !68
  store ptr %1, ptr %4, align 8, !tbaa !53
  %5 = load ptr, ptr %3, align 8
  %6 = load ptr, ptr %4, align 8, !tbaa !53
  call void @_ZN6icu_7716LocalPointerBaseI15UResourceBundleEC2EPS1_(ptr noundef nonnull align 8 dereferenceable(8) %5, ptr noundef %6)
  ret void
}

; Function Attrs: mustprogress uwtable
define i32 @ucurr_getNumericCode_77(ptr noundef %0) #1 personality ptr @__gxx_personality_v0 {
  %2 = alloca ptr, align 8
  %3 = alloca i32, align 4
  %4 = alloca i32, align 4
  %5 = alloca ptr, align 8
  %6 = alloca %"class.icu_77::internal::LocalOpenPointer", align 8
  %7 = alloca ptr, align 8
  %8 = alloca i32, align 4
  %9 = alloca [4 x i8], align 1
  %10 = alloca i32, align 4
  store ptr %0, ptr %2, align 8, !tbaa !39
  call void @llvm.lifetime.start.p0(i64 4, ptr %3) #12
  store i32 0, ptr %3, align 4, !tbaa !14
  %11 = load ptr, ptr %2, align 8, !tbaa !39
  %12 = icmp ne ptr %11, null
  br i1 %12, label %13, label %67

13:                                               ; preds = %1
  %14 = load ptr, ptr %2, align 8, !tbaa !39
  %15 = call i32 @u_strlen_77(ptr noundef %14)
  %16 = icmp eq i32 %15, 3
  br i1 %16, label %17, label %67

17:                                               ; preds = %13
  call void @llvm.lifetime.start.p0(i64 4, ptr %4) #12
  store i32 0, ptr %4, align 4, !tbaa !15
  call void @llvm.lifetime.start.p0(i64 8, ptr %5) #12
  %18 = call ptr @ures_openDirect_77(ptr noundef null, ptr noundef @.str.12, ptr noundef %4)
  store ptr %18, ptr %5, align 8, !tbaa !53
  call void @llvm.lifetime.start.p0(i64 8, ptr %6) #12
  %19 = load ptr, ptr %5, align 8, !tbaa !53
  %20 = load ptr, ptr %5, align 8, !tbaa !53
  %21 = call ptr @ures_getByKey_77(ptr noundef %19, ptr noundef @.str.13, ptr noundef %20, ptr noundef %4)
  call void @_ZN6icu_778internal16LocalOpenPointerI15UResourceBundleXadL_Z13ures_close_77EEEC2EPS2_(ptr noundef nonnull align 8 dereferenceable(8) %6, ptr noundef %21)
  %22 = load i32, ptr %4, align 4, !tbaa !15
  %23 = invoke noundef signext i8 @_ZL9U_SUCCESS10UErrorCode(i32 noundef %22)
          to label %24 unwind label %51

24:                                               ; preds = %17
  %25 = icmp ne i8 %23, 0
  br i1 %25, label %26, label %65

26:                                               ; preds = %24
  call void @llvm.lifetime.start.p0(i64 4, ptr %9) #12
  %27 = getelementptr inbounds [4 x i8], ptr %9, i64 0, i64 0
  %28 = load ptr, ptr %2, align 8, !tbaa !39
  %29 = invoke noundef ptr @_ZL15myUCharsToCharsPcPKDs(ptr noundef %27, ptr noundef %28)
          to label %30 unwind label %55

30:                                               ; preds = %26
  %31 = getelementptr inbounds [4 x i8], ptr %9, i64 0, i64 0
  %32 = invoke ptr @T_CString_toUpperCase_77(ptr noundef %31)
          to label %33 unwind label %55

33:                                               ; preds = %30
  %34 = invoke noundef ptr @_ZNK6icu_7716LocalPointerBaseI15UResourceBundleE8getAliasEv(ptr noundef nonnull align 8 dereferenceable(8) %6)
          to label %35 unwind label %55

35:                                               ; preds = %33
  %36 = getelementptr inbounds [4 x i8], ptr %9, i64 0, i64 0
  %37 = invoke noundef ptr @_ZNK6icu_7716LocalPointerBaseI15UResourceBundleE8getAliasEv(ptr noundef nonnull align 8 dereferenceable(8) %6)
          to label %38 unwind label %55

38:                                               ; preds = %35
  %39 = invoke ptr @ures_getByKey_77(ptr noundef %34, ptr noundef %36, ptr noundef %37, ptr noundef %4)
          to label %40 unwind label %55

40:                                               ; preds = %38
  call void @llvm.lifetime.start.p0(i64 4, ptr %10) #12
  %41 = invoke noundef ptr @_ZNK6icu_7716LocalPointerBaseI15UResourceBundleE8getAliasEv(ptr noundef nonnull align 8 dereferenceable(8) %6)
          to label %42 unwind label %59

42:                                               ; preds = %40
  %43 = invoke i32 @ures_getInt_77(ptr noundef %41, ptr noundef %4)
          to label %44 unwind label %59

44:                                               ; preds = %42
  store i32 %43, ptr %10, align 4, !tbaa !14
  %45 = load i32, ptr %4, align 4, !tbaa !15
  %46 = invoke noundef signext i8 @_ZL9U_SUCCESS10UErrorCode(i32 noundef %45)
          to label %47 unwind label %59

47:                                               ; preds = %44
  %48 = icmp ne i8 %46, 0
  br i1 %48, label %49, label %63

49:                                               ; preds = %47
  %50 = load i32, ptr %10, align 4, !tbaa !14
  store i32 %50, ptr %3, align 4, !tbaa !14
  br label %63

51:                                               ; preds = %17
  %52 = landingpad { ptr, i32 }
          cleanup
  %53 = extractvalue { ptr, i32 } %52, 0
  store ptr %53, ptr %7, align 8
  %54 = extractvalue { ptr, i32 } %52, 1
  store i32 %54, ptr %8, align 4
  br label %66

55:                                               ; preds = %38, %35, %33, %30, %26
  %56 = landingpad { ptr, i32 }
          cleanup
  %57 = extractvalue { ptr, i32 } %56, 0
  store ptr %57, ptr %7, align 8
  %58 = extractvalue { ptr, i32 } %56, 1
  store i32 %58, ptr %8, align 4
  br label %64

59:                                               ; preds = %44, %42, %40
  %60 = landingpad { ptr, i32 }
          cleanup
  %61 = extractvalue { ptr, i32 } %60, 0
  store ptr %61, ptr %7, align 8
  %62 = extractvalue { ptr, i32 } %60, 1
  store i32 %62, ptr %8, align 4
  call void @llvm.lifetime.end.p0(i64 4, ptr %10) #12
  br label %64

63:                                               ; preds = %49, %47
  call void @llvm.lifetime.end.p0(i64 4, ptr %10) #12
  call void @llvm.lifetime.end.p0(i64 4, ptr %9) #12
  br label %65

64:                                               ; preds = %59, %55
  call void @llvm.lifetime.end.p0(i64 4, ptr %9) #12
  br label %66

65:                                               ; preds = %63, %24
  call void @_ZN6icu_778internal16LocalOpenPointerI15UResourceBundleXadL_Z13ures_close_77EEED2Ev(ptr noundef nonnull align 8 dereferenceable(8) %6) #12
  call void @llvm.lifetime.end.p0(i64 8, ptr %6) #12
  call void @llvm.lifetime.end.p0(i64 8, ptr %5) #12
  call void @llvm.lifetime.end.p0(i64 4, ptr %4) #12
  br label %67

66:                                               ; preds = %64, %51
  call void @_ZN6icu_778internal16LocalOpenPointerI15UResourceBundleXadL_Z13ures_close_77EEED2Ev(ptr noundef nonnull align 8 dereferenceable(8) %6) #12
  call void @llvm.lifetime.end.p0(i64 8, ptr %6) #12
  call void @llvm.lifetime.end.p0(i64 8, ptr %5) #12
  call void @llvm.lifetime.end.p0(i64 4, ptr %4) #12
  call void @llvm.lifetime.end.p0(i64 4, ptr %3) #12
  br label %69

67:                                               ; preds = %65, %13, %1
  %68 = load i32, ptr %3, align 4, !tbaa !14
  call void @llvm.lifetime.end.p0(i64 4, ptr %3) #12
  ret i32 %68

69:                                               ; preds = %66
  %70 = load ptr, ptr %7, align 8
  %71 = load i32, ptr %8, align 4
  %72 = insertvalue { ptr, i32 } poison, ptr %70, 0
  %73 = insertvalue { ptr, i32 } %72, i32 %71, 1
  resume { ptr, i32 } %73
}