; Function Attrs: mustprogress uwtable
define i32 @ucurr_getNumericCode_77(ptr noundef %0) local_unnamed_addr #1 personality ptr @__gxx_personality_v0 {
  %2 = alloca i32, align 4
  %3 = alloca %"class.icu_77::internal::LocalOpenPointer", align 8
  %4 = alloca [4 x i8], align 1
  %.not = icmp eq ptr %0, null
  br i1 %.not, label %34, label %5

5:                                                ; preds = %1
  %6 = tail call i32 @u_strlen_77(ptr noundef nonnull %0)
  %7 = icmp eq i32 %6, 3
  br i1 %7, label %8, label %34

8:                                                ; preds = %5
  call void @llvm.lifetime.start.p0(i64 4, ptr nonnull %2) #20
  store i32 0, ptr %2, align 4, !tbaa !13
  %9 = call ptr @ures_openDirect_77(ptr noundef null, ptr noundef nonnull @.str.12, ptr noundef nonnull %2)
  call void @llvm.lifetime.start.p0(i64 8, ptr nonnull %3) #20
  %10 = call ptr @ures_getByKey_77(ptr noundef %9, ptr noundef nonnull @.str.13, ptr noundef %9, ptr noundef nonnull %2)
  store ptr %10, ptr %3, align 8, !tbaa !39
  %11 = load i32, ptr %2, align 4, !tbaa !13
  %12 = icmp sgt i32 %11, 0
  br i1 %12, label %29, label %13

13:                                               ; preds = %8
  call void @llvm.lifetime.start.p0(i64 4, ptr nonnull %4) #20
  invoke void @u_UCharsToChars_77(ptr noundef nonnull %0, ptr noundef nonnull %4, i32 noundef 3)
          to label %14 unwind label %24

14:                                               ; preds = %13
  %15 = getelementptr inbounds nuw i8, ptr %4, i64 3
  store i8 0, ptr %15, align 1, !tbaa !27
  %16 = invoke ptr @T_CString_toUpperCase_77(ptr noundef nonnull %4)
          to label %17 unwind label %24

17:                                               ; preds = %14
  %18 = invoke ptr @ures_getByKey_77(ptr noundef %10, ptr noundef nonnull %4, ptr noundef %10, ptr noundef nonnull %2)
          to label %19 unwind label %24

19:                                               ; preds = %17
  %20 = invoke i32 @ures_getInt_77(ptr noundef %10, ptr noundef nonnull %2)
          to label %21 unwind label %26

21:                                               ; preds = %19
  %22 = load i32, ptr %2, align 4, !tbaa !13
  %23 = icmp sgt i32 %22, 0
  %spec.select = select i1 %23, i32 0, i32 %20
  call void @llvm.lifetime.end.p0(i64 4, ptr nonnull %4) #20
  br label %29

24:                                               ; preds = %13, %17, %14
  %25 = landingpad { ptr, i32 }
          cleanup
  br label %28

26:                                               ; preds = %19
  %27 = landingpad { ptr, i32 }
          cleanup
  br label %28

28:                                               ; preds = %26, %24
  %.pn = phi { ptr, i32 } [ %27, %26 ], [ %25, %24 ]
  call void @llvm.lifetime.end.p0(i64 4, ptr nonnull %4) #20
  call void @_ZN6icu_778internal16LocalOpenPointerI15UResourceBundleXadL_Z13ures_close_77EEED2Ev(ptr noundef nonnull align 8 dereferenceable(8) %3) #20
  call void @llvm.lifetime.end.p0(i64 8, ptr nonnull %3) #20
  call void @llvm.lifetime.end.p0(i64 4, ptr nonnull %2) #20
  resume { ptr, i32 } %.pn

29:                                               ; preds = %21, %8
  %.1 = phi i32 [ %spec.select, %21 ], [ 0, %8 ]
  %.not.i = icmp eq ptr %10, null
  br i1 %.not.i, label %_ZN6icu_778internal16LocalOpenPointerI15UResourceBundleXadL_Z13ures_close_77EEED2Ev.exit, label %30

30:                                               ; preds = %29
  invoke void @ures_close_77(ptr noundef nonnull %10)
          to label %_ZN6icu_778internal16LocalOpenPointerI15UResourceBundleXadL_Z13ures_close_77EEED2Ev.exit unwind label %31

31:                                               ; preds = %30
  %32 = landingpad { ptr, i32 }
          catch ptr null
  %33 = extractvalue { ptr, i32 } %32, 0
  call void @__clang_call_terminate(ptr %33) #22
  unreachable

_ZN6icu_778internal16LocalOpenPointerI15UResourceBundleXadL_Z13ures_close_77EEED2Ev.exit: ; preds = %29, %30
  call void @llvm.lifetime.end.p0(i64 8, ptr nonnull %3) #20
  call void @llvm.lifetime.end.p0(i64 4, ptr nonnull %2) #20
  br label %34

34:                                               ; preds = %_ZN6icu_778internal16LocalOpenPointerI15UResourceBundleXadL_Z13ures_close_77EEED2Ev.exit, %5, %1
  %.0 = phi i32 [ %.1, %_ZN6icu_778internal16LocalOpenPointerI15UResourceBundleXadL_Z13ures_close_77EEED2Ev.exit ], [ 0, %5 ], [ 0, %1 ]
  ret i32 %.0
}